In archive libArduinoRealTimeClock.a:

RealTimeClockDS1307.o:     file format elf32-avr

Sections:
Idx Name          Size      VMA       LMA       File off  Algn
  0 .group        0000000c  00000000  00000000  00000034  2**2
                  CONTENTS, READONLY, EXCLUDE, GROUP, LINK_ONCE_DISCARD
  1 .group        00000008  00000000  00000000  00000040  2**2
                  CONTENTS, READONLY, EXCLUDE, GROUP, LINK_ONCE_DISCARD
  2 .text         00000000  00000000  00000000  00000048  2**0
                  CONTENTS, ALLOC, LOAD, READONLY, CODE
  3 .data         00000000  00000000  00000000  00000048  2**0
                  CONTENTS, ALLOC, LOAD, DATA
  4 .bss          00000000  00000000  00000000  00000048  2**0
                  ALLOC
  5 .text._ZN19RealTimeClockDS130710getSecondsEv 0000000c  00000000  00000000  00000048  2**0
                  CONTENTS, ALLOC, LOAD, RELOC, READONLY, CODE
  6 .text._ZN19RealTimeClockDS130710getMinutesEv 0000000c  00000000  00000000  00000054  2**0
                  CONTENTS, ALLOC, LOAD, RELOC, READONLY, CODE
  7 .text._ZN19RealTimeClockDS13077getHourEv 0000000c  00000000  00000000  00000060  2**0
                  CONTENTS, ALLOC, LOAD, RELOC, READONLY, CODE
  8 .text._ZN19RealTimeClockDS13076getDayEv 0000000c  00000000  00000000  0000006c  2**0
                  CONTENTS, ALLOC, LOAD, RELOC, READONLY, CODE
  9 .text._ZN19RealTimeClockDS13077getDateEv 0000000c  00000000  00000000  00000078  2**0
                  CONTENTS, ALLOC, LOAD, RELOC, READONLY, CODE
 10 .text._ZN19RealTimeClockDS13078getMonthEv 0000000c  00000000  00000000  00000084  2**0
                  CONTENTS, ALLOC, LOAD, RELOC, READONLY, CODE
 11 .text._ZN19RealTimeClockDS13077getYearEv 0000000c  00000000  00000000  00000090  2**0
                  CONTENTS, ALLOC, LOAD, RELOC, READONLY, CODE
 12 .text._ZN19RealTimeClockDS13074isPMEv 0000000c  00000000  00000000  0000009c  2**0
                  CONTENTS, ALLOC, LOAD, RELOC, READONLY, CODE
 13 .text._ZN19RealTimeClockDS1307D2Ev 0000000e  00000000  00000000  000000a8  2**0
                  CONTENTS, ALLOC, LOAD, RELOC, READONLY, CODE
 14 .text._ZN19RealTimeClockDS1307D0Ev 00000014  00000000  00000000  000000b6  2**0
                  CONTENTS, ALLOC, LOAD, RELOC, READONLY, CODE
 15 .text._ZN19RealTimeClockDS1307C2Ev 00000026  00000000  00000000  000000ca  2**0
                  CONTENTS, ALLOC, LOAD, RELOC, READONLY, CODE
 16 .rodata._ZTV19RealTimeClockDS1307 00000018  00000000  00000000  000000f0  2**0
                  CONTENTS, ALLOC, LOAD, RELOC, READONLY, DATA
 17 .comment      00000012  00000000  00000000  00000108  2**0
                  CONTENTS, READONLY

Disassembly of section .text._ZN19RealTimeClockDS130710getSecondsEv:

00000000 <_ZN19RealTimeClockDS130710getSecondsEv>:
   0:	60 e0       	ldi	r22, 0x00	; 0
   2:	02 96       	adiw	r24, 0x02	; 2
   4:	0e 94 00 00 	call	0	; 0x0 <_ZN19RealTimeClockDS130710getSecondsEv>
   8:	80 e0       	ldi	r24, 0x00	; 0
   a:	08 95       	ret

Disassembly of section .text._ZN19RealTimeClockDS130710getMinutesEv:

00000000 <_ZN19RealTimeClockDS130710getMinutesEv>:
   0:	61 e0       	ldi	r22, 0x01	; 1
   2:	02 96       	adiw	r24, 0x02	; 2
   4:	0e 94 00 00 	call	0	; 0x0 <_ZN19RealTimeClockDS130710getMinutesEv>
   8:	80 e0       	ldi	r24, 0x00	; 0
   a:	08 95       	ret

Disassembly of section .text._ZN19RealTimeClockDS13077getHourEv:

00000000 <_ZN19RealTimeClockDS13077getHourEv>:
   0:	62 e0       	ldi	r22, 0x02	; 2
   2:	02 96       	adiw	r24, 0x02	; 2
   4:	0e 94 00 00 	call	0	; 0x0 <_ZN19RealTimeClockDS13077getHourEv>
   8:	80 e0       	ldi	r24, 0x00	; 0
   a:	08 95       	ret

Disassembly of section .text._ZN19RealTimeClockDS13076getDayEv:

00000000 <_ZN19RealTimeClockDS13076getDayEv>:
   0:	64 e0       	ldi	r22, 0x04	; 4
   2:	02 96       	adiw	r24, 0x02	; 2
   4:	0e 94 00 00 	call	0	; 0x0 <_ZN19RealTimeClockDS13076getDayEv>
   8:	80 e0       	ldi	r24, 0x00	; 0
   a:	08 95       	ret

Disassembly of section .text._ZN19RealTimeClockDS13077getDateEv:

00000000 <_ZN19RealTimeClockDS13077getDateEv>:
   0:	64 e0       	ldi	r22, 0x04	; 4
   2:	02 96       	adiw	r24, 0x02	; 2
   4:	0e 94 00 00 	call	0	; 0x0 <_ZN19RealTimeClockDS13077getDateEv>
   8:	80 e0       	ldi	r24, 0x00	; 0
   a:	08 95       	ret

Disassembly of section .text._ZN19RealTimeClockDS13078getMonthEv:

00000000 <_ZN19RealTimeClockDS13078getMonthEv>:
   0:	65 e0       	ldi	r22, 0x05	; 5
   2:	02 96       	adiw	r24, 0x02	; 2
   4:	0e 94 00 00 	call	0	; 0x0 <_ZN19RealTimeClockDS13078getMonthEv>
   8:	80 e0       	ldi	r24, 0x00	; 0
   a:	08 95       	ret

Disassembly of section .text._ZN19RealTimeClockDS13077getYearEv:

00000000 <_ZN19RealTimeClockDS13077getYearEv>:
   0:	66 e0       	ldi	r22, 0x06	; 6
   2:	02 96       	adiw	r24, 0x02	; 2
   4:	0e 94 00 00 	call	0	; 0x0 <_ZN19RealTimeClockDS13077getYearEv>
   8:	80 e0       	ldi	r24, 0x00	; 0
   a:	08 95       	ret

Disassembly of section .text._ZN19RealTimeClockDS13074isPMEv:

00000000 <_ZN19RealTimeClockDS13074isPMEv>:
   0:	62 e0       	ldi	r22, 0x02	; 2
   2:	02 96       	adiw	r24, 0x02	; 2
   4:	0e 94 00 00 	call	0	; 0x0 <_ZN19RealTimeClockDS13074isPMEv>
   8:	80 e0       	ldi	r24, 0x00	; 0
   a:	08 95       	ret

Disassembly of section .text._ZN19RealTimeClockDS1307D2Ev:

00000000 <_ZN19RealTimeClockDS1307D1Ev>:
   0:	20 e0       	ldi	r18, 0x00	; 0
   2:	30 e0       	ldi	r19, 0x00	; 0
   4:	fc 01       	movw	r30, r24
   6:	31 83       	std	Z+1, r19	; 0x01
   8:	20 83       	st	Z, r18
   a:	0c 94 00 00 	jmp	0	; 0x0 <_ZN19RealTimeClockDS1307D1Ev>

Disassembly of section .text._ZN19RealTimeClockDS1307D0Ev:

00000000 <_ZN19RealTimeClockDS1307D0Ev>:
   0:	cf 93       	push	r28
   2:	df 93       	push	r29
   4:	ec 01       	movw	r28, r24
   6:	0e 94 00 00 	call	0	; 0x0 <_ZN19RealTimeClockDS1307D0Ev>
   a:	ce 01       	movw	r24, r28
   c:	df 91       	pop	r29
   e:	cf 91       	pop	r28
  10:	0c 94 00 00 	jmp	0	; 0x0 <_ZN19RealTimeClockDS1307D0Ev>

Disassembly of section .text._ZN19RealTimeClockDS1307C2Ev:

00000000 <_ZN19RealTimeClockDS1307C1Ev>:
   0:	cf 93       	push	r28
   2:	df 93       	push	r29
   4:	ec 01       	movw	r28, r24
   6:	fc 01       	movw	r30, r24
   8:	80 e0       	ldi	r24, 0x00	; 0
   a:	90 e0       	ldi	r25, 0x00	; 0
   c:	81 93       	st	Z+, r24
   e:	91 93       	st	Z+, r25
  10:	68 e6       	ldi	r22, 0x68	; 104
  12:	cf 01       	movw	r24, r30
  14:	0e 94 00 00 	call	0	; 0x0 <_ZN19RealTimeClockDS1307C1Ev>
  18:	80 e0       	ldi	r24, 0x00	; 0
  1a:	90 e0       	ldi	r25, 0x00	; 0
  1c:	99 83       	std	Y+1, r25	; 0x01
  1e:	88 83       	st	Y, r24
  20:	df 91       	pop	r29
  22:	cf 91       	pop	r28
  24:	08 95       	ret

RealTimeClock.o:     file format elf32-avr

Sections:
Idx Name          Size      VMA       LMA       File off  Algn
  0 .group        00000008  00000000  00000000  00000034  2**2
                  CONTENTS, READONLY, EXCLUDE, GROUP, LINK_ONCE_DISCARD
  1 .text         00000000  00000000  00000000  0000003c  2**0
                  CONTENTS, ALLOC, LOAD, READONLY, CODE
  2 .data         00000000  00000000  00000000  0000003c  2**0
                  CONTENTS, ALLOC, LOAD, DATA
  3 .bss          00000000  00000000  00000000  0000003c  2**0
                  ALLOC
  4 .text._ZN13RealTimeClockD2Ev 00000002  00000000  00000000  0000003c  2**0
                  CONTENTS, ALLOC, LOAD, READONLY, CODE
  5 .text._ZN13RealTimeClockD0Ev 00000004  00000000  00000000  0000003e  2**0
                  CONTENTS, ALLOC, LOAD, RELOC, READONLY, CODE
  6 .rodata._ZTV13RealTimeClock 00000018  00000000  00000000  00000042  2**0
                  CONTENTS, ALLOC, LOAD, RELOC, READONLY, DATA
  7 .comment      00000012  00000000  00000000  0000005a  2**0
                  CONTENTS, READONLY

Disassembly of section .text._ZN13RealTimeClockD2Ev:

00000000 <_ZN13RealTimeClockD1Ev>:
   0:	08 95       	ret

Disassembly of section .text._ZN13RealTimeClockD0Ev:

00000000 <_ZN13RealTimeClockD0Ev>:
   0:	0c 94 00 00 	jmp	0	; 0x0 <_ZN13RealTimeClockD0Ev>
